; Function Attrs: mustprogress uwtable
define internal fastcc void @_ZSt25__unguarded_linear_insertIN9__gnu_cxx17__normal_iteratorIPN5zxing3RefINS2_6qrcode13FinderPatternEEESt6vectorIS6_SaIS6_EEEENS0_5__ops14_Val_comp_iterINS4_12_GLOBAL__N_115BestComparator2EEEEvT_T0_(ptr nocapture %0) unnamed_addr #0 personality ptr @__gxx_personality_v0 {
  %2 = alloca %"class.zxing::Ref.21", align 8
  %3 = alloca %"class.zxing::Ref.21", align 8
  %4 = load ptr, ptr %0, align 8
  %.not.i.i = icmp eq ptr %4, null
  br i1 %.not.i.i, label %_ZN5zxing3RefINS_6qrcode13FinderPatternEEC2ERKS3_.exit, label %5

5:                                                ; preds = %1
  %6 = getelementptr inbounds i8, ptr %4, i64 8
  %7 = load i32, ptr %6, align 8
  %8 = add i32 %7, 1
  store i32 %8, ptr %6, align 8
  br label %_ZN5zxing3RefINS_6qrcode13FinderPatternEEC2ERKS3_.exit

_ZN5zxing3RefINS_6qrcode13FinderPatternEEC2ERKS3_.exit: ; preds = %5, %1
  %9 = getelementptr inbounds i8, ptr %4, i64 8
  br label %10

10:                                               ; preds = %_ZN5zxing3RefINS_6qrcode13FinderPatternEEaSERKS3_.exit, %_ZN5zxing3RefINS_6qrcode13FinderPatternEEC2ERKS3_.exit
  %.sroa.013.0 = phi ptr [ %0, %_ZN5zxing3RefINS_6qrcode13FinderPatternEEC2ERKS3_.exit ], [ %.sroa.0.0, %_ZN5zxing3RefINS_6qrcode13FinderPatternEEaSERKS3_.exit ]
  %.sroa.0.0 = getelementptr inbounds i8, ptr %.sroa.013.0, i64 -8
  call void @llvm.lifetime.start.p0(i64 8, ptr nonnull %2)
  call void @llvm.lifetime.start.p0(i64 8, ptr nonnull %3)
  br i1 %.not.i.i, label %_ZN5zxing3RefINS_6qrcode13FinderPatternEEC2ERKS3_.exit.i, label %11

11:                                               ; preds = %10
  %12 = load i32, ptr %9, align 8
  %13 = add i32 %12, 1
  store i32 %13, ptr %9, align 8
  br label %_ZN5zxing3RefINS_6qrcode13FinderPatternEEC2ERKS3_.exit.i

_ZN5zxing3RefINS_6qrcode13FinderPatternEEC2ERKS3_.exit.i: ; preds = %11, %10
  store ptr %4, ptr %2, align 8
  %14 = load ptr, ptr %.sroa.0.0, align 8
  %.not.i.i5.i = icmp eq ptr %14, null
  br i1 %.not.i.i5.i, label %19, label %15

15:                                               ; preds = %_ZN5zxing3RefINS_6qrcode13FinderPatternEEC2ERKS3_.exit.i
  %16 = getelementptr inbounds i8, ptr %14, i64 8
  %17 = load i32, ptr %16, align 8
  %18 = add i32 %17, 1
  store i32 %18, ptr %16, align 8
  br label %19

19:                                               ; preds = %15, %_ZN5zxing3RefINS_6qrcode13FinderPatternEEC2ERKS3_.exit.i
  store ptr %14, ptr %3, align 8
  %20 = invoke fastcc noundef zeroext i1 @_ZN5zxing6qrcode12_GLOBAL__N_115BestComparator2clENS_3RefINS0_13FinderPatternEEES5_(ptr noundef nonnull %2, ptr noundef nonnull %3)
          to label %21 unwind label %39

21:                                               ; preds = %19
  br i1 %.not.i.i5.i, label %_ZN5zxing3RefINS_6qrcode13FinderPatternEED2Ev.exit.i, label %22

22:                                               ; preds = %21
  %23 = getelementptr inbounds i8, ptr %14, i64 8
  %24 = load i32, ptr %23, align 8
  %25 = add i32 %24, -1
  store i32 %25, ptr %23, align 8
  %26 = icmp eq i32 %25, 0
  br i1 %26, label %27, label %_ZN5zxing3RefINS_6qrcode13FinderPatternEED2Ev.exit.i

27:                                               ; preds = %22
  store i32 -559026175, ptr %23, align 8
  %28 = load ptr, ptr %14, align 8
  %29 = getelementptr inbounds i8, ptr %28, i64 8
  %30 = load ptr, ptr %29, align 8
  tail call void %30(ptr noundef nonnull align 8 dereferenceable(12) %14) #22
  br label %_ZN5zxing3RefINS_6qrcode13FinderPatternEED2Ev.exit.i

_ZN5zxing3RefINS_6qrcode13FinderPatternEED2Ev.exit.i: ; preds = %27, %22, %21
  br i1 %.not.i.i, label %.thread, label %31

31:                                               ; preds = %_ZN5zxing3RefINS_6qrcode13FinderPatternEED2Ev.exit.i
  %32 = load i32, ptr %9, align 8
  %33 = add i32 %32, -1
  store i32 %33, ptr %9, align 8
  %34 = icmp eq i32 %33, 0
  br i1 %34, label %35, label %58

35:                                               ; preds = %31
  store i32 -559026175, ptr %9, align 8
  %36 = load ptr, ptr %4, align 8
  %37 = getelementptr inbounds i8, ptr %36, i64 8
  %38 = load ptr, ptr %37, align 8
  tail call void %38(ptr noundef nonnull align 8 dereferenceable(12) %4) #22
  br label %58

39:                                               ; preds = %19
  %40 = landingpad { ptr, i32 }
          cleanup
  br i1 %.not.i.i5.i, label %_ZN5zxing3RefINS_6qrcode13FinderPatternEED2Ev.exit12.i, label %41

41:                                               ; preds = %39
  %42 = getelementptr inbounds i8, ptr %14, i64 8
  %43 = load i32, ptr %42, align 8
  %44 = add i32 %43, -1
  store i32 %44, ptr %42, align 8
  %45 = icmp eq i32 %44, 0
  br i1 %45, label %46, label %_ZN5zxing3RefINS_6qrcode13FinderPatternEED2Ev.exit12.i

46:                                               ; preds = %41
  store i32 -559026175, ptr %42, align 8
  %47 = load ptr, ptr %14, align 8
  %48 = getelementptr inbounds i8, ptr %47, i64 8
  %49 = load ptr, ptr %48, align 8
  tail call void %49(ptr noundef nonnull align 8 dereferenceable(12) %14) #22
  br label %_ZN5zxing3RefINS_6qrcode13FinderPatternEED2Ev.exit12.i

_ZN5zxing3RefINS_6qrcode13FinderPatternEED2Ev.exit12.i: ; preds = %46, %41, %39
  br i1 %.not.i.i, label %_ZN5zxing3RefINS_6qrcode13FinderPatternEED2Ev.exit, label %50

50:                                               ; preds = %_ZN5zxing3RefINS_6qrcode13FinderPatternEED2Ev.exit12.i
  %51 = load i32, ptr %9, align 8
  %52 = add i32 %51, -1
  store i32 %52, ptr %9, align 8
  %53 = icmp eq i32 %52, 0
  br i1 %53, label %54, label %76

54:                                               ; preds = %50
  store i32 -559026175, ptr %9, align 8
  %55 = load ptr, ptr %4, align 8
  %56 = getelementptr inbounds i8, ptr %55, i64 8
  %57 = load ptr, ptr %56, align 8
  tail call void %57(ptr noundef nonnull align 8 dereferenceable(12) %4) #22
  %.pre = load i32, ptr %9, align 8
  br label %76

58:                                               ; preds = %35, %31
  call void @llvm.lifetime.end.p0(i64 8, ptr nonnull %2)
  call void @llvm.lifetime.end.p0(i64 8, ptr nonnull %3)
  br i1 %20, label %59, label %84

.thread:                                          ; preds = %_ZN5zxing3RefINS_6qrcode13FinderPatternEED2Ev.exit.i
  call void @llvm.lifetime.end.p0(i64 8, ptr nonnull %2)
  call void @llvm.lifetime.end.p0(i64 8, ptr nonnull %3)
  br i1 %20, label %59, label %.thread21

59:                                               ; preds = %.thread, %58
  %60 = load ptr, ptr %.sroa.0.0, align 8
  %.not.i.i1 = icmp eq ptr %60, null
  br i1 %.not.i.i1, label %65, label %61

61:                                               ; preds = %59
  %62 = getelementptr inbounds i8, ptr %60, i64 8
  %63 = load i32, ptr %62, align 8
  %64 = add i32 %63, 1
  store i32 %64, ptr %62, align 8
  br label %65

65:                                               ; preds = %61, %59
  %66 = load ptr, ptr %.sroa.013.0, align 8
  %.not5.i.i2 = icmp eq ptr %66, null
  br i1 %.not5.i.i2, label %_ZN5zxing3RefINS_6qrcode13FinderPatternEEaSERKS3_.exit, label %67

67:                                               ; preds = %65
  %68 = getelementptr inbounds i8, ptr %66, i64 8
  %69 = load i32, ptr %68, align 8
  %70 = add i32 %69, -1
  store i32 %70, ptr %68, align 8
  %71 = icmp eq i32 %70, 0
  br i1 %71, label %72, label %_ZN5zxing3RefINS_6qrcode13FinderPatternEEaSERKS3_.exit

72:                                               ; preds = %67
  store i32 -559026175, ptr %68, align 8
  %73 = load ptr, ptr %66, align 8
  %74 = getelementptr inbounds i8, ptr %73, i64 8
  %75 = load ptr, ptr %74, align 8
  tail call void %75(ptr noundef nonnull align 8 dereferenceable(12) %66) #22
  br label %_ZN5zxing3RefINS_6qrcode13FinderPatternEEaSERKS3_.exit

_ZN5zxing3RefINS_6qrcode13FinderPatternEEaSERKS3_.exit: ; preds = %65, %67, %72
  store ptr %60, ptr %.sroa.013.0, align 8
  br label %10, !llvm.loop !122

76:                                               ; preds = %50, %54
  %77 = phi i32 [ %52, %50 ], [ %.pre, %54 ]
  %78 = add i32 %77, -1
  store i32 %78, ptr %9, align 8
  %79 = icmp eq i32 %78, 0
  br i1 %79, label %80, label %_ZN5zxing3RefINS_6qrcode13FinderPatternEED2Ev.exit

80:                                               ; preds = %76
  store i32 -559026175, ptr %9, align 8
  %81 = load ptr, ptr %4, align 8
  %82 = getelementptr inbounds i8, ptr %81, i64 8
  %83 = load ptr, ptr %82, align 8
  tail call void %83(ptr noundef nonnull align 8 dereferenceable(12) %4) #22
  br label %_ZN5zxing3RefINS_6qrcode13FinderPatternEED2Ev.exit

_ZN5zxing3RefINS_6qrcode13FinderPatternEED2Ev.exit: ; preds = %_ZN5zxing3RefINS_6qrcode13FinderPatternEED2Ev.exit12.i, %76, %80
  resume { ptr, i32 } %40

84:                                               ; preds = %58
  %85 = load i32, ptr %9, align 8
  %86 = add i32 %85, 1
  store i32 %86, ptr %9, align 8
  br label %.thread21

.thread21:                                        ; preds = %.thread, %84
  %87 = load ptr, ptr %.sroa.013.0, align 8
  %.not5.i.i4 = icmp eq ptr %87, null
  br i1 %.not5.i.i4, label %_ZN5zxing3RefINS_6qrcode13FinderPatternEEaSERKS3_.exit5, label %88

88:                                               ; preds = %.thread21
  %89 = getelementptr inbounds i8, ptr %87, i64 8
  %90 = load i32, ptr %89, align 8
  %91 = add i32 %90, -1
  store i32 %91, ptr %89, align 8
  %92 = icmp eq i32 %91, 0
  br i1 %92, label %93, label %_ZN5zxing3RefINS_6qrcode13FinderPatternEEaSERKS3_.exit5

93:                                               ; preds = %88
  store i32 -559026175, ptr %89, align 8
  %94 = load ptr, ptr %87, align 8
  %95 = getelementptr inbounds i8, ptr %94, i64 8
  %96 = load ptr, ptr %95, align 8
  tail call void %96(ptr noundef nonnull align 8 dereferenceable(12) %87) #22
  br label %_ZN5zxing3RefINS_6qrcode13FinderPatternEEaSERKS3_.exit5

_ZN5zxing3RefINS_6qrcode13FinderPatternEEaSERKS3_.exit5: ; preds = %.thread21, %88, %93
  store ptr %4, ptr %.sroa.013.0, align 8
  br i1 %.not.i.i, label %_ZN5zxing3RefINS_6qrcode13FinderPatternEED2Ev.exit7, label %97

97:                                               ; preds = %_ZN5zxing3RefINS_6qrcode13FinderPatternEEaSERKS3_.exit5
  %98 = load i32, ptr %9, align 8
  %99 = add i32 %98, -1
  store i32 %99, ptr %9, align 8
  %100 = icmp eq i32 %99, 0
  br i1 %100, label %101, label %_ZN5zxing3RefINS_6qrcode13FinderPatternEED2Ev.exit7

101:                                              ; preds = %97
  store i32 -559026175, ptr %9, align 8
  %102 = load ptr, ptr %4, align 8
  %103 = getelementptr inbounds i8, ptr %102, i64 8
  %104 = load ptr, ptr %103, align 8
  tail call void %104(ptr noundef nonnull align 8 dereferenceable(12) %4) #22
  br label %_ZN5zxing3RefINS_6qrcode13FinderPatternEED2Ev.exit7

_ZN5zxing3RefINS_6qrcode13FinderPatternEED2Ev.exit7: ; preds = %_ZN5zxing3RefINS_6qrcode13FinderPatternEEaSERKS3_.exit5, %97, %101
  ret void
}